target datalayout = "e-m:e-p270:32:32-p271:32:32-p272:64:64-i64:64-i128:128-f80:128-n8:16:32:64-S128"
target triple = "x86_64-pc-linux-gnu"

%class.LogTagSet = type { ptr, i64, [5 x i32], [4 x i8], %class.LogOutputList, %class.LogDecorators, ptr }
%class.LogOutputList = type <{ [6 x ptr], i32, [4 x i8] }>
%class.LogDecorators = type { i32 }
%class.G1ConcurrentRefineThreadControl = type { ptr, %class.GrowableArrayCHeap }
%class.GrowableArrayCHeap = type { %class.GrowableArrayWithAllocator.7 }
%class.GrowableArrayWithAllocator.7 = type { %class.GrowableArrayView.8 }
%class.GrowableArrayView.8 = type { %class.GrowableArrayBase, ptr }
%class.GrowableArrayBase = type { i32, i32 }
%class.G1ConcurrentRefine = type { ptr, i32, i64, %class.TimeInstant, %class.TimeInstant, i8, [7 x i8], %class.G1ConcurrentRefineThreadsNeeded, %class.G1ConcurrentRefineThreadControl, ptr }
%class.TimeInstant = type { %class.CompositeCounterRepresentation }
%class.CompositeCounterRepresentation = type { %class.Representation }
%class.Representation = type { %class.PairRep }
%class.PairRep = type { i64, i64 }
%class.G1ConcurrentRefineThreadsNeeded = type <{ ptr, double, double, i64, i32, [4 x i8] }>

@.str.8 = private unnamed_addr constant [36 x i8] c"Unchanged pending cards target: %zu\00", align 1
@.str.9 = private unnamed_addr constant [30 x i8] c"New pending cards target: %zu\00", align 1
@G1UseConcRefinement = external global i8, align 1
@_ZN16LogTagSetMappingILN6LogTag4typeE49ELS1_40ELS1_127ELS1_0ELS1_0ELS1_0EE7_tagsetE = linkonce_odr hidden global %class.LogTagSet zeroinitializer, comdat, align 8
@ParallelGCThreads = external global i32, align 4
@G1UpdateBufferSize = external global i64, align 8

; Function Attrs: mustprogress nounwind uwtable
define linkonce_odr hidden noundef zeroext i1 @_ZNK13LogOutputList8is_levelEN8LogLevel4typeE(ptr noundef nonnull align 8 dereferenceable(52) %0, i32 noundef %1) #1 comdat align 2 {
  %3 = alloca ptr, align 8
  %4 = alloca i32, align 4
  store ptr %0, ptr %3, align 8
  store i32 %1, ptr %4, align 4
  %5 = load ptr, ptr %3, align 8
  %6 = getelementptr inbounds %class.LogOutputList, ptr %5, i32 0, i32 0
  %7 = load i32, ptr %4, align 4
  %8 = zext i32 %7 to i64
  %9 = getelementptr inbounds [6 x ptr], ptr %6, i64 0, i64 %8
  %10 = load volatile ptr, ptr %9, align 8
  %11 = icmp ne ptr %10, null
  ret i1 %11
}

; Function Attrs: mustprogress nounwind uwtable
define linkonce_odr hidden noundef zeroext i1 @_ZNK9LogTagSet8is_levelEN8LogLevel4typeE(ptr noundef nonnull align 8 dereferenceable(112) %0, i32 noundef %1) #1 comdat align 2 {
  %3 = alloca ptr, align 8
  %4 = alloca i32, align 4
  store ptr %0, ptr %3, align 8
  store i32 %1, ptr %4, align 4
  %5 = load ptr, ptr %3, align 8
  %6 = getelementptr inbounds %class.LogTagSet, ptr %5, i32 0, i32 4
  %7 = load i32, ptr %4, align 4
  %8 = call noundef zeroext i1 @_ZNK13LogOutputList8is_levelEN8LogLevel4typeE(ptr noundef nonnull align 8 dereferenceable(52) %6, i32 noundef %7)
  ret i1 %8
}

; Function Attrs: mustprogress nounwind uwtable
define linkonce_odr hidden noundef nonnull align 8 dereferenceable(112) ptr @_ZN16LogTagSetMappingILN6LogTag4typeE49ELS1_40ELS1_127ELS1_0ELS1_0ELS1_0EE6tagsetEv() #1 comdat align 2 {
  ret ptr @_ZN16LogTagSetMappingILN6LogTag4typeE49ELS1_40ELS1_127ELS1_0ELS1_0ELS1_0EE7_tagsetE
}

; Function Attrs: mustprogress nounwind uwtable
define linkonce_odr hidden noundef i32 @_ZNK17GrowableArrayBase8capacityEv(ptr noundef nonnull align 4 dereferenceable(8) %0) #1 comdat align 2 {
  %2 = alloca ptr, align 8
  store ptr %0, ptr %2, align 8
  %3 = load ptr, ptr %2, align 8
  %4 = getelementptr inbounds %class.GrowableArrayBase, ptr %3, i32 0, i32 1
  %5 = load i32, ptr %4, align 4
  ret i32 %5
}

; Function Attrs: mustprogress nounwind uwtable
define linkonce_odr hidden noundef i64 @_Z4MAX2ImET_S0_S0_(i64 noundef %0, i64 noundef %1) #1 comdat {
  %3 = alloca i64, align 8
  %4 = alloca i64, align 8
  store i64 %0, ptr %3, align 8
  store i64 %1, ptr %4, align 8
  %5 = load i64, ptr %3, align 8
  %6 = load i64, ptr %4, align 8
  %7 = icmp ugt i64 %5, %6
  br i1 %7, label %8, label %10

8:                                                ; preds = %2
  %9 = load i64, ptr %3, align 8
  br label %12

10:                                               ; preds = %2
  %11 = load i64, ptr %4, align 8
  br label %12

12:                                               ; preds = %10, %8
  %13 = phi i64 [ %9, %8 ], [ %11, %10 ]
  ret i64 %13
}

; Function Attrs: mustprogress nounwind uwtable
define linkonce_odr hidden noundef i64 @_Z4MIN2ImET_S0_S0_(i64 noundef %0, i64 noundef %1) #1 comdat {
  %3 = alloca i64, align 8
  %4 = alloca i64, align 8
  store i64 %0, ptr %3, align 8
  store i64 %1, ptr %4, align 8
  %5 = load i64, ptr %3, align 8
  %6 = load i64, ptr %4, align 8
  %7 = icmp ult i64 %5, %6
  br i1 %7, label %8, label %10

8:                                                ; preds = %2
  %9 = load i64, ptr %3, align 8
  br label %12

10:                                               ; preds = %2
  %11 = load i64, ptr %4, align 8
  br label %12

12:                                               ; preds = %10, %8
  %13 = phi i64 [ %9, %8 ], [ %11, %10 ]
  ret i64 %13
}

; Function Attrs: mustprogress nounwind uwtable
define linkonce_odr hidden noundef zeroext i1 @_ZN7LogImplILN6LogTag4typeE49ELS1_40ELS1_127ELS1_0ELS1_0ELS1_0EE8is_levelEN8LogLevel4typeE(i32 noundef %0) #1 comdat align 2 {
  %2 = alloca i32, align 4
  store i32 %0, ptr %2, align 4
  %3 = call noundef nonnull align 8 dereferenceable(112) ptr @_ZN16LogTagSetMappingILN6LogTag4typeE49ELS1_40ELS1_127ELS1_0ELS1_0ELS1_0EE6tagsetEv()
  %4 = load i32, ptr %2, align 4
  %5 = call noundef zeroext i1 @_ZNK9LogTagSet8is_levelEN8LogLevel4typeE(ptr noundef nonnull align 8 dereferenceable(112) %3, i32 noundef %4)
  ret i1 %5
}

; Function Attrs: mustprogress nounwind uwtable
define internal noundef i64 @_ZL28minimum_pending_cards_targetv() #1 {
  %1 = load i32, ptr @ParallelGCThreads, align 4
  %2 = zext i32 %1 to i64
  %3 = load i64, ptr @G1UpdateBufferSize, align 8
  %4 = mul i64 %2, %3
  ret i64 %4
}

; Function Attrs: mustprogress nounwind uwtable
define linkonce_odr hidden noundef zeroext i1 @_ZNK18G1ConcurrentRefine35is_pending_cards_target_initializedEv(ptr noundef nonnull align 8 dereferenceable(136) %0) #1 comdat align 2 {
  %2 = alloca ptr, align 8
  store ptr %0, ptr %2, align 8
  %3 = load ptr, ptr %2, align 8
  %4 = getelementptr inbounds %class.G1ConcurrentRefine, ptr %3, i32 0, i32 2
  %5 = load i64, ptr %4, align 8
  %6 = icmp ne i64 %5, -1
  ret i1 %6
}

; Function Attrs: mustprogress nounwind uwtable
define linkonce_odr hidden noundef i32 @_ZNK31G1ConcurrentRefineThreadControl15max_num_threadsEv(ptr noundef nonnull align 8 dereferenceable(24) %0) #1 comdat align 2 {
  %2 = alloca ptr, align 8
  store ptr %0, ptr %2, align 8
  %3 = load ptr, ptr %2, align 8
  %4 = getelementptr inbounds %class.G1ConcurrentRefineThreadControl, ptr %3, i32 0, i32 1
  %5 = call noundef i32 @_ZNK17GrowableArrayBase8capacityEv(ptr noundef nonnull align 4 dereferenceable(8) %4)
  ret i32 %5
}

; Function Attrs: mustprogress nounwind uwtable
define hidden void @_ZN18G1ConcurrentRefine27update_pending_cards_targetEdmmd(ptr noundef nonnull align 8 dereferenceable(136) %0, double noundef %1, i64 noundef %2, i64 noundef %3, double noundef %4) #1 align 2 {
  %6 = alloca ptr, align 8
  %7 = alloca double, align 8
  %8 = alloca i64, align 8
  %9 = alloca i64, align 8
  %10 = alloca double, align 8
  %11 = alloca i64, align 8
  %12 = alloca double, align 8
  %13 = alloca i64, align 8
  %14 = alloca i64, align 8
  store ptr %0, ptr %6, align 8
  store double %1, ptr %7, align 8
  store i64 %2, ptr %8, align 8
  store i64 %3, ptr %9, align 8
  store double %4, ptr %10, align 8
  %15 = load ptr, ptr %6, align 8
  %16 = call noundef i64 @_ZL28minimum_pending_cards_targetv()
  store i64 %16, ptr %11, align 8
  %17 = load i64, ptr %8, align 8
  %18 = load i64, ptr %11, align 8
  %19 = icmp ult i64 %17, %18
  br i1 %19, label %23, label %20

20:                                               ; preds = %5
  %21 = load double, ptr %7, align 8
  %22 = fcmp oeq double %21, 0.000000e+00
  br i1 %22, label %23, label %30

23:                                               ; preds = %20, %5
  %24 = call noundef zeroext i1 @_ZN7LogImplILN6LogTag4typeE49ELS1_40ELS1_127ELS1_0ELS1_0ELS1_0EE8is_levelEN8LogLevel4typeE(i32 noundef 2)
  br i1 %24, label %26, label %25

25:                                               ; preds = %23
  br label %29

26:                                               ; preds = %23
  %27 = getelementptr inbounds %class.G1ConcurrentRefine, ptr %15, i32 0, i32 2
  %28 = load i64, ptr %27, align 8
  call void (ptr, ...) @_ZN7LogImplILN6LogTag4typeE49ELS1_40ELS1_127ELS1_0ELS1_0ELS1_0EE5writeILN8LogLevel4typeE2EEEvPKcz(ptr noundef @.str.8, i64 noundef %28)
  br label %29

29:                                               ; preds = %26, %25
  br label %61

30:                                               ; preds = %20
  %31 = load i64, ptr %8, align 8
  %32 = uitofp i64 %31 to double
  %33 = load double, ptr %7, align 8
  %34 = fdiv double %32, %33
  store double %34, ptr %12, align 8
  %35 = load double, ptr %10, align 8
  %36 = load double, ptr %12, align 8
  %37 = fmul double %35, %36
  %38 = fptoui double %37 to i64
  store i64 %38, ptr %13, align 8
  %39 = load i64, ptr %13, align 8
  %40 = load i64, ptr %13, align 8
  %41 = load i64, ptr %9, align 8
  %42 = call noundef i64 @_Z4MIN2ImET_S0_S0_(i64 noundef %40, i64 noundef %41)
  %43 = sub i64 %39, %42
  store i64 %43, ptr %14, align 8
  %44 = call noundef zeroext i1 @_ZNK18G1ConcurrentRefine35is_pending_cards_target_initializedEv(ptr noundef nonnull align 8 dereferenceable(136) %15)
  br i1 %44, label %45, label %51

45:                                               ; preds = %30
  %46 = load i64, ptr %14, align 8
  %47 = getelementptr inbounds %class.G1ConcurrentRefine, ptr %15, i32 0, i32 2
  %48 = load i64, ptr %47, align 8
  %49 = add i64 %46, %48
  %50 = udiv i64 %49, 2
  store i64 %50, ptr %14, align 8
  br label %51

51:                                               ; preds = %45, %30
  %52 = load i64, ptr %14, align 8
  %53 = call noundef i64 @_ZL28minimum_pending_cards_targetv()
  %54 = call noundef i64 @_Z4MAX2ImET_S0_S0_(i64 noundef %52, i64 noundef %53)
  store i64 %54, ptr %14, align 8
  %55 = load i64, ptr %14, align 8
  %56 = getelementptr inbounds %class.G1ConcurrentRefine, ptr %15, i32 0, i32 2
  store i64 %55, ptr %56, align 8
  %57 = call noundef zeroext i1 @_ZN7LogImplILN6LogTag4typeE49ELS1_40ELS1_127ELS1_0ELS1_0ELS1_0EE8is_levelEN8LogLevel4typeE(i32 noundef 2)
  br i1 %57, label %59, label %58

58:                                               ; preds = %51
  br label %61

59:                                               ; preds = %51
  %60 = load i64, ptr %14, align 8
  call void (ptr, ...) @_ZN7LogImplILN6LogTag4typeE49ELS1_40ELS1_127ELS1_0ELS1_0ELS1_0EE5writeILN8LogLevel4typeE2EEEvPKcz(ptr noundef @.str.9, i64 noundef %60)
  br label %61

61:                                               ; preds = %59, %58, %29
  ret void
}

; Function Attrs: mustprogress nounwind uwtable
define hidden void @_ZN18G1ConcurrentRefine15adjust_after_gcEdmmd(ptr noundef nonnull align 8 dereferenceable(136) %0, double noundef %1, i64 noundef %2, i64 noundef %3, double noundef %4) #1 align 2 {
  %6 = alloca ptr, align 8
  %7 = alloca double, align 8
  %8 = alloca i64, align 8
  %9 = alloca i64, align 8
  %10 = alloca double, align 8
  store ptr %0, ptr %6, align 8
  store double %1, ptr %7, align 8
  store i64 %2, ptr %8, align 8
  store i64 %3, ptr %9, align 8
  store double %4, ptr %10, align 8
  %11 = load ptr, ptr %6, align 8
  %12 = load i8, ptr @G1UseConcRefinement, align 1
  %13 = trunc i8 %12 to i1
  br i1 %13, label %15, label %14

14:                                               ; preds = %5
  br label %37

15:                                               ; preds = %5
  %16 = load double, ptr %7, align 8
  %17 = load i64, ptr %8, align 8
  %18 = load i64, ptr %9, align 8
  %19 = load double, ptr %10, align 8
  call void @_ZN18G1ConcurrentRefine27update_pending_cards_targetEdmmd(ptr noundef nonnull align 8 dereferenceable(136) %11, double noundef %16, i64 noundef %17, i64 noundef %18, double noundef %19)
  %20 = getelementptr inbounds %class.G1ConcurrentRefine, ptr %11, i32 0, i32 8
  %21 = call noundef i32 @_ZNK31G1ConcurrentRefineThreadControl15max_num_threadsEv(ptr noundef nonnull align 8 dereferenceable(24) %20)
  %22 = icmp eq i32 %21, 0
  br i1 %22, label %23, label %28

23:                                               ; preds = %15
  %24 = getelementptr inbounds %class.G1ConcurrentRefine, ptr %11, i32 0, i32 9
  %25 = load ptr, ptr %24, align 8
  %26 = getelementptr inbounds %class.G1ConcurrentRefine, ptr %11, i32 0, i32 2
  %27 = load i64, ptr %26, align 8
  call void @_ZN19G1DirtyCardQueueSet32set_mutator_refinement_thresholdEm(ptr noundef nonnull align 8 dereferenceable(928) %25, i64 noundef %27)
  br label %37

28:                                               ; preds = %15
  %29 = getelementptr inbounds %class.G1ConcurrentRefine, ptr %11, i32 0, i32 9
  %30 = load ptr, ptr %29, align 8
  call void @_ZN19G1DirtyCardQueueSet32set_mutator_refinement_thresholdEm(ptr noundef nonnull align 8 dereferenceable(928) %30, i64 noundef -1)
  %31 = getelementptr inbounds %class.G1ConcurrentRefine, ptr %11, i32 0, i32 5
  store i8 1, ptr %31, align 8
  %32 = call noundef zeroext i1 @_ZNK18G1ConcurrentRefine35is_pending_cards_target_initializedEv(ptr noundef nonnull align 8 dereferenceable(136) %11)
  br i1 %32, label %33, label %36

33:                                               ; preds = %28
  %34 = getelementptr inbounds %class.G1ConcurrentRefine, ptr %11, i32 0, i32 8
  %35 = call noundef zeroext i1 @_ZN31G1ConcurrentRefineThreadControl8activateEj(ptr noundef nonnull align 8 dereferenceable(24) %34, i32 noundef 0)
  br label %36

36:                                               ; preds = %33, %28
  br label %37

37:                                               ; preds = %36, %23, %14
  ret void
}