; Function Attrs: mustprogress nounwind uwtable
define hidden void @_ZN18G1ConcurrentRefine15adjust_after_gcEdmmd(ptr noundef nonnull align 8 dereferenceable(136) %0, double noundef %1, i64 noundef %2, i64 noundef %3, double noundef %4) local_unnamed_addr #0 align 2 {
  %6 = load i8, ptr @G1UseConcRefinement, align 1
  %7 = trunc i8 %6 to i1
  br i1 %7, label %8, label %48

8:                                                ; preds = %5
  %9 = load i32, ptr @ParallelGCThreads, align 4
  %10 = zext i32 %9 to i64
  %11 = load i64, ptr @G1UpdateBufferSize, align 8
  %12 = mul i64 %11, %10
  %13 = icmp ugt i64 %12, %2
  %14 = fcmp oeq double %1, 0.000000e+00
  %or.cond.i = or i1 %14, %13
  br i1 %or.cond.i, label %15, label %20

15:                                               ; preds = %8
  %16 = load volatile ptr, ptr getelementptr inbounds (i8, ptr @_ZN16LogTagSetMappingILN6LogTag4typeE49ELS1_40ELS1_127ELS1_0ELS1_0ELS1_0EE7_tagsetE, i64 56), align 8
  %.not18.i = icmp eq ptr %16, null
  br i1 %.not18.i, label %_ZN18G1ConcurrentRefine27update_pending_cards_targetEdmmd.exit, label %17

17:                                               ; preds = %15
  %18 = getelementptr inbounds i8, ptr %0, i64 16
  %19 = load i64, ptr %18, align 8
  tail call void (ptr, ...) @_ZN7LogImplILN6LogTag4typeE49ELS1_40ELS1_127ELS1_0ELS1_0ELS1_0EE5writeILN8LogLevel4typeE2EEEvPKcz(ptr noundef nonnull @.str.8, i64 noundef %19)
  br label %_ZN18G1ConcurrentRefine27update_pending_cards_targetEdmmd.exit

20:                                               ; preds = %8
  %21 = uitofp i64 %2 to double
  %22 = fdiv double %21, %1
  %23 = fmul double %22, %4
  %24 = fptoui double %23 to i64
  %25 = tail call i64 @llvm.usub.sat.i64(i64 %24, i64 %3)
  %26 = getelementptr inbounds i8, ptr %0, i64 16
  %27 = load i64, ptr %26, align 8
  %.not.i = icmp eq i64 %27, -1
  %28 = add i64 %27, %25
  %29 = lshr i64 %28, 1
  %.0.i = select i1 %.not.i, i64 %25, i64 %29
  %30 = tail call noundef i64 @llvm.umax.i64(i64 %.0.i, i64 %12)
  store i64 %30, ptr %26, align 8
  %31 = load volatile ptr, ptr getelementptr inbounds (i8, ptr @_ZN16LogTagSetMappingILN6LogTag4typeE49ELS1_40ELS1_127ELS1_0ELS1_0ELS1_0EE7_tagsetE, i64 56), align 8
  %.not17.i = icmp eq ptr %31, null
  br i1 %.not17.i, label %_ZN18G1ConcurrentRefine27update_pending_cards_targetEdmmd.exit, label %32

32:                                               ; preds = %20
  tail call void (ptr, ...) @_ZN7LogImplILN6LogTag4typeE49ELS1_40ELS1_127ELS1_0ELS1_0ELS1_0EE5writeILN8LogLevel4typeE2EEEvPKcz(ptr noundef nonnull @.str.9, i64 noundef %30)
  br label %_ZN18G1ConcurrentRefine27update_pending_cards_targetEdmmd.exit

_ZN18G1ConcurrentRefine27update_pending_cards_targetEdmmd.exit: ; preds = %15, %17, %20, %32
  %33 = getelementptr inbounds i8, ptr %0, i64 104
  %34 = getelementptr inbounds i8, ptr %0, i64 116
  %35 = load i32, ptr %34, align 4
  %36 = icmp eq i32 %35, 0
  %37 = getelementptr inbounds i8, ptr %0, i64 128
  %38 = load ptr, ptr %37, align 8
  br i1 %36, label %39, label %42

39:                                               ; preds = %_ZN18G1ConcurrentRefine27update_pending_cards_targetEdmmd.exit
  %40 = getelementptr inbounds i8, ptr %0, i64 16
  %41 = load i64, ptr %40, align 8
  tail call void @_ZN19G1DirtyCardQueueSet32set_mutator_refinement_thresholdEm(ptr noundef nonnull align 8 dereferenceable(928) %38, i64 noundef %41) #17
  br label %48

42:                                               ; preds = %_ZN18G1ConcurrentRefine27update_pending_cards_targetEdmmd.exit
  tail call void @_ZN19G1DirtyCardQueueSet32set_mutator_refinement_thresholdEm(ptr noundef nonnull align 8 dereferenceable(928) %38, i64 noundef -1) #17
  %43 = getelementptr inbounds i8, ptr %0, i64 56
  store i8 1, ptr %43, align 8
  %44 = getelementptr inbounds i8, ptr %0, i64 16
  %45 = load i64, ptr %44, align 8
  %.not = icmp eq i64 %45, -1
  br i1 %.not, label %48, label %46

46:                                               ; preds = %42
  %47 = tail call noundef zeroext i1 @_ZN31G1ConcurrentRefineThreadControl8activateEj(ptr noundef nonnull align 8 dereferenceable(24) %33, i32 noundef 0)
  br label %48

48:                                               ; preds = %42, %46, %5, %39
  ret void
}